; Function Attrs: mustprogress uwtable
define void @_ZN6casadi11FmuFunction15get_sparsity_inEx(ptr dead_on_unwind noalias writable sret(%"class.casadi::Sparsity") align 8 %0, ptr noundef nonnull align 8 dereferenceable(1752) %1, i64 noundef %2) unnamed_addr #3 align 2 {
  %4 = getelementptr inbounds i8, ptr %1, i64 1312
  %5 = getelementptr inbounds i8, ptr %1, i64 1320
  %6 = load ptr, ptr %5, align 8
  %7 = load ptr, ptr %4, align 8
  %8 = ptrtoint ptr %6 to i64
  %9 = ptrtoint ptr %7 to i64
  %10 = sub i64 %8, %9
  %11 = ashr exact i64 %10, 4
  %.not.i.i = icmp ugt i64 %11, %2
  br i1 %.not.i.i, label %_ZNSt6vectorIN6casadi11InputStructESaIS1_EE2atEm.exit, label %12

12:                                               ; preds = %3
  tail call void (ptr, ...) @_ZSt24__throw_out_of_range_fmtPKcz(ptr noundef nonnull @.str.215, i64 noundef %2, i64 noundef %11) #23
  unreachable

_ZNSt6vectorIN6casadi11InputStructESaIS1_EE2atEm.exit: ; preds = %3
  %13 = getelementptr inbounds %"struct.casadi::InputStruct", ptr %7, i64 %2
  %14 = load i32, ptr %13, align 8
  switch i32 %14, label %70 [
    i32 0, label %_ZNSt6vectorIN6casadi11InputStructESaIS1_EE2atEm.exit7
    i32 1, label %_ZNSt6vectorIN6casadi11InputStructESaIS1_EE2atEm.exit9
    i32 2, label %_ZNSt6vectorIN6casadi11InputStructESaIS1_EE2atEm.exit11
    i32 3, label %_ZNSt6vectorIN6casadi11InputStructESaIS1_EE2atEm.exit13
    i32 4, label %_ZNSt6vectorIN6casadi11InputStructESaIS1_EE2atEm.exit15
  ]

_ZNSt6vectorIN6casadi11InputStructESaIS1_EE2atEm.exit7: ; preds = %_ZNSt6vectorIN6casadi11InputStructESaIS1_EE2atEm.exit
  %15 = getelementptr inbounds i8, ptr %1, i64 1304
  %16 = getelementptr inbounds i8, ptr %13, i64 8
  %17 = load i64, ptr %16, align 8
  %18 = tail call noundef nonnull align 8 dereferenceable(24) ptr @_ZNK6casadi3Fmu4iredEm(ptr noundef nonnull align 8 dereferenceable(8) %15, i64 noundef %17)
  %19 = getelementptr inbounds i8, ptr %18, i64 8
  %20 = load ptr, ptr %19, align 8
  %21 = load ptr, ptr %18, align 8
  %22 = ptrtoint ptr %20 to i64
  %23 = ptrtoint ptr %21 to i64
  %24 = sub i64 %22, %23
  %25 = ashr exact i64 %24, 3
  tail call void @_ZN6casadi8Sparsity5denseExx(ptr dead_on_unwind writable sret(%"class.casadi::Sparsity") align 8 %0, i64 noundef %25, i64 noundef 1)
  br label %71

_ZNSt6vectorIN6casadi11InputStructESaIS1_EE2atEm.exit9: ; preds = %_ZNSt6vectorIN6casadi11InputStructESaIS1_EE2atEm.exit
  %26 = getelementptr inbounds i8, ptr %1, i64 1304
  %27 = getelementptr inbounds i8, ptr %13, i64 8
  %28 = load i64, ptr %27, align 8
  %29 = tail call noundef nonnull align 8 dereferenceable(24) ptr @_ZNK6casadi3Fmu4iredEm(ptr noundef nonnull align 8 dereferenceable(8) %26, i64 noundef %28)
  %30 = getelementptr inbounds i8, ptr %29, i64 8
  %31 = load ptr, ptr %30, align 8
  %32 = load ptr, ptr %29, align 8
  %33 = ptrtoint ptr %31 to i64
  %34 = ptrtoint ptr %32 to i64
  %35 = sub i64 %33, %34
  %36 = ashr exact i64 %35, 3
  tail call void @_ZN6casadi8Sparsity5denseExx(ptr dead_on_unwind writable sret(%"class.casadi::Sparsity") align 8 %0, i64 noundef %36, i64 noundef 1)
  br label %71

_ZNSt6vectorIN6casadi11InputStructESaIS1_EE2atEm.exit11: ; preds = %_ZNSt6vectorIN6casadi11InputStructESaIS1_EE2atEm.exit
  %37 = getelementptr inbounds i8, ptr %1, i64 1304
  %38 = getelementptr inbounds i8, ptr %13, i64 8
  %39 = load i64, ptr %38, align 8
  %40 = tail call noundef nonnull align 8 dereferenceable(24) ptr @_ZNK6casadi3Fmu4oredEm(ptr noundef nonnull align 8 dereferenceable(8) %37, i64 noundef %39)
  %41 = getelementptr inbounds i8, ptr %40, i64 8
  %42 = load ptr, ptr %41, align 8
  %43 = load ptr, ptr %40, align 8
  %44 = ptrtoint ptr %42 to i64
  %45 = ptrtoint ptr %43 to i64
  %46 = sub i64 %44, %45
  %47 = ashr exact i64 %46, 3
  tail call void @_ZN6casadi8Sparsity5denseExx(ptr dead_on_unwind writable sret(%"class.casadi::Sparsity") align 8 %0, i64 noundef %47, i64 noundef 1)
  br label %71

_ZNSt6vectorIN6casadi11InputStructESaIS1_EE2atEm.exit13: ; preds = %_ZNSt6vectorIN6casadi11InputStructESaIS1_EE2atEm.exit
  %48 = getelementptr inbounds i8, ptr %1, i64 1304
  %49 = getelementptr inbounds i8, ptr %13, i64 8
  %50 = load i64, ptr %49, align 8
  %51 = tail call noundef nonnull align 8 dereferenceable(24) ptr @_ZNK6casadi3Fmu4oredEm(ptr noundef nonnull align 8 dereferenceable(8) %48, i64 noundef %50)
  %52 = getelementptr inbounds i8, ptr %51, i64 8
  %53 = load ptr, ptr %52, align 8
  %54 = load ptr, ptr %51, align 8
  %55 = ptrtoint ptr %53 to i64
  %56 = ptrtoint ptr %54 to i64
  %57 = sub i64 %55, %56
  %58 = ashr exact i64 %57, 3
  tail call void @_ZN6casadi8SparsityC1Exx(ptr noundef nonnull align 8 dereferenceable(8) %0, i64 noundef %58, i64 noundef 1)
  br label %71

_ZNSt6vectorIN6casadi11InputStructESaIS1_EE2atEm.exit15: ; preds = %_ZNSt6vectorIN6casadi11InputStructESaIS1_EE2atEm.exit
  %59 = getelementptr inbounds i8, ptr %1, i64 1304
  %60 = getelementptr inbounds i8, ptr %13, i64 8
  %61 = load i64, ptr %60, align 8
  %62 = tail call noundef nonnull align 8 dereferenceable(24) ptr @_ZNK6casadi3Fmu4iredEm(ptr noundef nonnull align 8 dereferenceable(8) %59, i64 noundef %61)
  %63 = getelementptr inbounds i8, ptr %62, i64 8
  %64 = load ptr, ptr %63, align 8
  %65 = load ptr, ptr %62, align 8
  %66 = ptrtoint ptr %64 to i64
  %67 = ptrtoint ptr %65 to i64
  %68 = sub i64 %66, %67
  %69 = ashr exact i64 %68, 3
  tail call void @_ZN6casadi8SparsityC1Exx(ptr noundef nonnull align 8 dereferenceable(8) %0, i64 noundef %69, i64 noundef 1)
  br label %71

70:                                               ; preds = %_ZNSt6vectorIN6casadi11InputStructESaIS1_EE2atEm.exit
  tail call void @_ZN6casadi8SparsityC1Ex(ptr noundef nonnull align 8 dereferenceable(8) %0, i64 noundef 0)
  br label %71

71:                                               ; preds = %70, %_ZNSt6vectorIN6casadi11InputStructESaIS1_EE2atEm.exit15, %_ZNSt6vectorIN6casadi11InputStructESaIS1_EE2atEm.exit13, %_ZNSt6vectorIN6casadi11InputStructESaIS1_EE2atEm.exit11, %_ZNSt6vectorIN6casadi11InputStructESaIS1_EE2atEm.exit9, %_ZNSt6vectorIN6casadi11InputStructESaIS1_EE2atEm.exit7
  ret void
}